target datalayout = "e-m:e-p270:32:32-p271:32:32-p272:64:64-i64:64-i128:128-f80:128-n8:16:32:64-S128"
target triple = "x86_64-pc-linux-gnu"

@av_base64_encode.b64 = internal constant [65 x i8] c"ABCDEFGHIJKLMNOPQRSTUVWXYZabcdefghijklmnopqrstuvwxyz0123456789+/\00", align 16

; Function Attrs: alwaysinline nounwind willreturn memory(none) uwtable
define internal i32 @av_bswap32(i32 noundef %0) #2 {
  %2 = alloca i32, align 4
  store i32 %0, ptr %2, align 4, !tbaa !9
  %3 = load i32, ptr %2, align 4, !tbaa !9
  %4 = shl i32 %3, 8
  %5 = and i32 %4, 65280
  %6 = load i32, ptr %2, align 4, !tbaa !9
  %7 = lshr i32 %6, 8
  %8 = and i32 %7, 255
  %9 = or i32 %5, %8
  %10 = shl i32 %9, 16
  %11 = load i32, ptr %2, align 4, !tbaa !9
  %12 = lshr i32 %11, 16
  %13 = shl i32 %12, 8
  %14 = and i32 %13, 65280
  %15 = load i32, ptr %2, align 4, !tbaa !9
  %16 = lshr i32 %15, 16
  %17 = lshr i32 %16, 8
  %18 = and i32 %17, 255
  %19 = or i32 %14, %18
  %20 = or i32 %10, %19
  ret i32 %20
}

; Function Attrs: nounwind uwtable
define ptr @av_base64_encode(ptr noundef %0, i32 noundef %1, ptr noundef %2, i32 noundef %3) #0 {
  %5 = alloca ptr, align 8
  %6 = alloca ptr, align 8
  %7 = alloca i32, align 4
  %8 = alloca ptr, align 8
  %9 = alloca i32, align 4
  %10 = alloca ptr, align 8
  %11 = alloca ptr, align 8
  %12 = alloca i32, align 4
  %13 = alloca i32, align 4
  %14 = alloca i32, align 4
  %15 = alloca i32, align 4
  store ptr %0, ptr %6, align 8, !tbaa !4
  store i32 %1, ptr %7, align 4, !tbaa !9
  store ptr %2, ptr %8, align 8, !tbaa !4
  store i32 %3, ptr %9, align 4, !tbaa !9
  call void @llvm.lifetime.start.p0(i64 8, ptr %10) #3
  call void @llvm.lifetime.start.p0(i64 8, ptr %11) #3
  call void @llvm.lifetime.start.p0(i64 4, ptr %12) #3
  store i32 0, ptr %12, align 4, !tbaa !9
  call void @llvm.lifetime.start.p0(i64 4, ptr %13) #3
  store i32 0, ptr %13, align 4, !tbaa !9
  call void @llvm.lifetime.start.p0(i64 4, ptr %14) #3
  %16 = load i32, ptr %9, align 4, !tbaa !9
  store i32 %16, ptr %14, align 4, !tbaa !9
  %17 = load i32, ptr %9, align 4, !tbaa !9
  %18 = icmp uge i32 %17, 1073741823
  br i1 %18, label %27, label %19

19:                                               ; preds = %4
  %20 = load i32, ptr %7, align 4, !tbaa !9
  %21 = load i32, ptr %9, align 4, !tbaa !9
  %22 = add nsw i32 %21, 2
  %23 = sdiv i32 %22, 3
  %24 = mul nsw i32 %23, 4
  %25 = add nsw i32 %24, 1
  %26 = icmp slt i32 %20, %25
  br i1 %26, label %27, label %28

27:                                               ; preds = %19, %4
  store ptr null, ptr %5, align 8
  store i32 1, ptr %15, align 4
  br label %120

28:                                               ; preds = %19
  %29 = load ptr, ptr %6, align 8, !tbaa !4
  store ptr %29, ptr %11, align 8, !tbaa !4
  store ptr %29, ptr %10, align 8, !tbaa !4
  br label %30

30:                                               ; preds = %33, %28
  %31 = load i32, ptr %14, align 4, !tbaa !9
  %32 = icmp sgt i32 %31, 3
  br i1 %32, label %33, label %72

33:                                               ; preds = %30
  %34 = load ptr, ptr %8, align 8, !tbaa !4
  %35 = load i32, ptr %34, align 1, !tbaa !11
  %36 = call i32 @av_bswap32(i32 noundef %35) #4
  store i32 %36, ptr %12, align 4, !tbaa !9
  %37 = load ptr, ptr %8, align 8, !tbaa !4
  %38 = getelementptr inbounds i8, ptr %37, i64 3
  store ptr %38, ptr %8, align 8, !tbaa !4
  %39 = load i32, ptr %14, align 4, !tbaa !9
  %40 = sub nsw i32 %39, 3
  store i32 %40, ptr %14, align 4, !tbaa !9
  %41 = load i32, ptr %12, align 4, !tbaa !9
  %42 = lshr i32 %41, 26
  %43 = zext i32 %42 to i64
  %44 = getelementptr inbounds nuw [65 x i8], ptr @av_base64_encode.b64, i64 0, i64 %43
  %45 = load i8, ptr %44, align 1, !tbaa !11
  %46 = load ptr, ptr %11, align 8, !tbaa !4
  %47 = getelementptr inbounds nuw i8, ptr %46, i32 1
  store ptr %47, ptr %11, align 8, !tbaa !4
  store i8 %45, ptr %46, align 1, !tbaa !11
  %48 = load i32, ptr %12, align 4, !tbaa !9
  %49 = lshr i32 %48, 20
  %50 = and i32 %49, 63
  %51 = zext i32 %50 to i64
  %52 = getelementptr inbounds nuw [65 x i8], ptr @av_base64_encode.b64, i64 0, i64 %51
  %53 = load i8, ptr %52, align 1, !tbaa !11
  %54 = load ptr, ptr %11, align 8, !tbaa !4
  %55 = getelementptr inbounds nuw i8, ptr %54, i32 1
  store ptr %55, ptr %11, align 8, !tbaa !4
  store i8 %53, ptr %54, align 1, !tbaa !11
  %56 = load i32, ptr %12, align 4, !tbaa !9
  %57 = lshr i32 %56, 14
  %58 = and i32 %57, 63
  %59 = zext i32 %58 to i64
  %60 = getelementptr inbounds nuw [65 x i8], ptr @av_base64_encode.b64, i64 0, i64 %59
  %61 = load i8, ptr %60, align 1, !tbaa !11
  %62 = load ptr, ptr %11, align 8, !tbaa !4
  %63 = getelementptr inbounds nuw i8, ptr %62, i32 1
  store ptr %63, ptr %11, align 8, !tbaa !4
  store i8 %61, ptr %62, align 1, !tbaa !11
  %64 = load i32, ptr %12, align 4, !tbaa !9
  %65 = lshr i32 %64, 8
  %66 = and i32 %65, 63
  %67 = zext i32 %66 to i64
  %68 = getelementptr inbounds nuw [65 x i8], ptr @av_base64_encode.b64, i64 0, i64 %67
  %69 = load i8, ptr %68, align 1, !tbaa !11
  %70 = load ptr, ptr %11, align 8, !tbaa !4
  %71 = getelementptr inbounds nuw i8, ptr %70, i32 1
  store ptr %71, ptr %11, align 8, !tbaa !4
  store i8 %69, ptr %70, align 1, !tbaa !11
  br label %30, !llvm.loop !14

72:                                               ; preds = %30
  store i32 0, ptr %12, align 4, !tbaa !9
  br label %73

73:                                               ; preds = %76, %72
  %74 = load i32, ptr %14, align 4, !tbaa !9
  %75 = icmp ne i32 %74, 0
  br i1 %75, label %76, label %88

76:                                               ; preds = %73
  %77 = load i32, ptr %12, align 4, !tbaa !9
  %78 = shl i32 %77, 8
  %79 = load ptr, ptr %8, align 8, !tbaa !4
  %80 = getelementptr inbounds nuw i8, ptr %79, i32 1
  store ptr %80, ptr %8, align 8, !tbaa !4
  %81 = load i8, ptr %79, align 1, !tbaa !11
  %82 = zext i8 %81 to i32
  %83 = add i32 %78, %82
  store i32 %83, ptr %12, align 4, !tbaa !9
  %84 = load i32, ptr %14, align 4, !tbaa !9
  %85 = add nsw i32 %84, -1
  store i32 %85, ptr %14, align 4, !tbaa !9
  %86 = load i32, ptr %13, align 4, !tbaa !9
  %87 = add nsw i32 %86, 8
  store i32 %87, ptr %13, align 4, !tbaa !9
  br label %73, !llvm.loop !15

88:                                               ; preds = %73
  br label %89

89:                                               ; preds = %92, %88
  %90 = load i32, ptr %13, align 4, !tbaa !9
  %91 = icmp sgt i32 %90, 0
  br i1 %91, label %92, label %105

92:                                               ; preds = %89
  %93 = load i32, ptr %12, align 4, !tbaa !9
  %94 = shl i32 %93, 6
  %95 = load i32, ptr %13, align 4, !tbaa !9
  %96 = lshr i32 %94, %95
  %97 = and i32 %96, 63
  %98 = zext i32 %97 to i64
  %99 = getelementptr inbounds nuw [65 x i8], ptr @av_base64_encode.b64, i64 0, i64 %98
  %100 = load i8, ptr %99, align 1, !tbaa !11
  %101 = load ptr, ptr %11, align 8, !tbaa !4
  %102 = getelementptr inbounds nuw i8, ptr %101, i32 1
  store ptr %102, ptr %11, align 8, !tbaa !4
  store i8 %100, ptr %101, align 1, !tbaa !11
  %103 = load i32, ptr %13, align 4, !tbaa !9
  %104 = sub nsw i32 %103, 6
  store i32 %104, ptr %13, align 4, !tbaa !9
  br label %89, !llvm.loop !16

105:                                              ; preds = %89
  br label %106

106:                                              ; preds = %114, %105
  %107 = load ptr, ptr %11, align 8, !tbaa !4
  %108 = load ptr, ptr %10, align 8, !tbaa !4
  %109 = ptrtoint ptr %107 to i64
  %110 = ptrtoint ptr %108 to i64
  %111 = sub i64 %109, %110
  %112 = and i64 %111, 3
  %113 = icmp ne i64 %112, 0
  br i1 %113, label %114, label %117

114:                                              ; preds = %106
  %115 = load ptr, ptr %11, align 8, !tbaa !4
  %116 = getelementptr inbounds nuw i8, ptr %115, i32 1
  store ptr %116, ptr %11, align 8, !tbaa !4
  store i8 61, ptr %115, align 1, !tbaa !11
  br label %106, !llvm.loop !17

117:                                              ; preds = %106
  %118 = load ptr, ptr %11, align 8, !tbaa !4
  store i8 0, ptr %118, align 1, !tbaa !11
  %119 = load ptr, ptr %10, align 8, !tbaa !4
  store ptr %119, ptr %5, align 8
  store i32 1, ptr %15, align 4
  br label %120

120:                                              ; preds = %117, %27
  call void @llvm.lifetime.end.p0(i64 4, ptr %14) #3
  call void @llvm.lifetime.end.p0(i64 4, ptr %13) #3
  call void @llvm.lifetime.end.p0(i64 4, ptr %12) #3
  call void @llvm.lifetime.end.p0(i64 8, ptr %11) #3
  call void @llvm.lifetime.end.p0(i64 8, ptr %10) #3
  %121 = load ptr, ptr %5, align 8
  ret ptr %121
}