; Function Attrs: nofree norecurse nosync nounwind memory(argmem: readwrite) uwtable
define noundef ptr @av_base64_encode(ptr noundef %0, i32 noundef %1, ptr noundef readonly captures(none) %2, i32 noundef %3) local_unnamed_addr #0 {
  %5 = icmp ugt i32 %3, 1073741822
  br i1 %5, label %64, label %6

6:                                                ; preds = %4
  %7 = add nuw nsw i32 %3, 2
  %8 = udiv i32 %7, 3
  %9 = shl nuw nsw i32 %8, 2
  %.not = icmp sgt i32 %1, %9
  br i1 %.not, label %.preheader45, label %64

.preheader45:                                     ; preds = %6
  %10 = icmp samesign ugt i32 %3, 3
  br i1 %10, label %.lr.ph, label %.preheader44

.preheader44:                                     ; preds = %.preheader45
  %.not4151 = icmp eq i32 %3, 0
  br i1 %.not4151, label %.preheader, label %.lr.ph56.preheader

.lr.ph56.preheader:                               ; preds = %.lr.ph, %.preheader44
  %.0.lcssa80 = phi i32 [ %3, %.preheader44 ], [ %14, %.lr.ph ]
  %.035.lcssa78 = phi ptr [ %0, %.preheader44 ], [ %37, %.lr.ph ]
  %.038.lcssa77 = phi ptr [ %2, %.preheader44 ], [ %13, %.lr.ph ]
  br label %.lr.ph56

.lr.ph:                                           ; preds = %.preheader45, %.lr.ph
  %.048 = phi i32 [ %14, %.lr.ph ], [ %3, %.preheader45 ]
  %.03547 = phi ptr [ %37, %.lr.ph ], [ %0, %.preheader45 ]
  %.03846 = phi ptr [ %13, %.lr.ph ], [ %2, %.preheader45 ]
  %11 = load i32, ptr %.03846, align 1, !tbaa !4
  %12 = tail call i32 @llvm.bswap.i32(i32 %11)
  %13 = getelementptr inbounds nuw i8, ptr %.03846, i64 3
  %14 = add nsw i32 %.048, -3
  %15 = lshr i32 %12, 26
  %16 = zext nneg i32 %15 to i64
  %17 = getelementptr inbounds nuw [65 x i8], ptr @av_base64_encode.b64, i64 0, i64 %16
  %18 = load i8, ptr %17, align 1, !tbaa !4
  %19 = getelementptr inbounds nuw i8, ptr %.03547, i64 1
  store i8 %18, ptr %.03547, align 1, !tbaa !4
  %20 = lshr i32 %12, 20
  %21 = and i32 %20, 63
  %22 = zext nneg i32 %21 to i64
  %23 = getelementptr inbounds nuw [65 x i8], ptr @av_base64_encode.b64, i64 0, i64 %22
  %24 = load i8, ptr %23, align 1, !tbaa !4
  %25 = getelementptr inbounds nuw i8, ptr %.03547, i64 2
  store i8 %24, ptr %19, align 1, !tbaa !4
  %26 = lshr i32 %12, 14
  %27 = and i32 %26, 63
  %28 = zext nneg i32 %27 to i64
  %29 = getelementptr inbounds nuw [65 x i8], ptr @av_base64_encode.b64, i64 0, i64 %28
  %30 = load i8, ptr %29, align 1, !tbaa !4
  %31 = getelementptr inbounds nuw i8, ptr %.03547, i64 3
  store i8 %30, ptr %25, align 1, !tbaa !4
  %32 = lshr i32 %12, 8
  %33 = and i32 %32, 63
  %34 = zext nneg i32 %33 to i64
  %35 = getelementptr inbounds nuw [65 x i8], ptr @av_base64_encode.b64, i64 0, i64 %34
  %36 = load i8, ptr %35, align 1, !tbaa !4
  %37 = getelementptr inbounds nuw i8, ptr %.03547, i64 4
  store i8 %36, ptr %31, align 1, !tbaa !4
  %38 = icmp samesign ugt i32 %.048, 6
  br i1 %38, label %.lr.ph, label %.lr.ph56.preheader, !llvm.loop !9

.lr.ph61:                                         ; preds = %.lr.ph56
  %39 = shl nuw nsw i32 %.0.lcssa80, 3
  %40 = shl i32 %45, 6
  br label %55

.lr.ph56:                                         ; preds = %.lr.ph56.preheader, %.lr.ph56
  %.155 = phi i32 [ %46, %.lr.ph56 ], [ %.0.lcssa80, %.lr.ph56.preheader ]
  %.03453 = phi i32 [ %45, %.lr.ph56 ], [ 0, %.lr.ph56.preheader ]
  %.13952 = phi ptr [ %42, %.lr.ph56 ], [ %.038.lcssa77, %.lr.ph56.preheader ]
  %41 = shl i32 %.03453, 8
  %42 = getelementptr inbounds nuw i8, ptr %.13952, i64 1
  %43 = load i8, ptr %.13952, align 1, !tbaa !4
  %44 = zext i8 %43 to i32
  %45 = or disjoint i32 %41, %44
  %46 = add nsw i32 %.155, -1
  %.not41 = icmp eq i32 %46, 0
  br i1 %.not41, label %.lr.ph61, label %.lr.ph56, !llvm.loop !10

.preheader:                                       ; preds = %55, %.preheader44
  %.136.lcssa = phi ptr [ %0, %.preheader44 ], [ %61, %55 ]
  %47 = ptrtoint ptr %0 to i64
  %48 = ptrtoint ptr %.136.lcssa to i64
  %49 = sub i64 %48, %47
  %50 = and i64 %49, 3
  %.not4263 = icmp eq i64 %50, 0
  br i1 %.not4263, label %._crit_edge, label %.lr.ph65.preheader

.lr.ph65.preheader:                               ; preds = %.preheader
  %51 = xor i64 %48, -1
  %52 = add i64 %51, %47
  %53 = and i64 %52, 3
  %54 = add nuw nsw i64 %53, 1
  tail call void @llvm.memset.p0.i64(ptr noundef nonnull align 1 dereferenceable(1) %.136.lcssa, i8 61, i64 %54, i1 false), !tbaa !4
  %scevgep = getelementptr i8, ptr %.136.lcssa, i64 %54
  br label %._crit_edge

55:                                               ; preds = %.lr.ph61, %55
  %.13360 = phi i32 [ %39, %.lr.ph61 ], [ %62, %55 ]
  %.13659 = phi ptr [ %.035.lcssa78, %.lr.ph61 ], [ %61, %55 ]
  %56 = lshr i32 %40, %.13360
  %57 = and i32 %56, 63
  %58 = zext nneg i32 %57 to i64
  %59 = getelementptr inbounds nuw [65 x i8], ptr @av_base64_encode.b64, i64 0, i64 %58
  %60 = load i8, ptr %59, align 1, !tbaa !4
  %61 = getelementptr inbounds nuw i8, ptr %.13659, i64 1
  store i8 %60, ptr %.13659, align 1, !tbaa !4
  %62 = add nsw i32 %.13360, -6
  %63 = icmp samesign ugt i32 %.13360, 6
  br i1 %63, label %55, label %.preheader, !llvm.loop !11

._crit_edge:                                      ; preds = %.lr.ph65.preheader, %.preheader
  %.2.lcssa = phi ptr [ %.136.lcssa, %.preheader ], [ %scevgep, %.lr.ph65.preheader ]
  store i8 0, ptr %.2.lcssa, align 1, !tbaa !4
  br label %64

64:                                               ; preds = %4, %6, %._crit_edge
  %.037 = phi ptr [ %0, %._crit_edge ], [ null, %6 ], [ null, %4 ]
  ret ptr %.037
}